target datalayout = "e-m:e-p270:32:32-p271:32:32-p272:64:64-i64:64-i128:128-f80:128-n8:16:32:64-S128"
target triple = "x86_64-pc-linux-gnu"

%"class.DFSRndNumGenerator::SearchState" = type { i8, i32, i32, i32 }

; Function Attrs: mustprogress nounwind uwtable
define dso_local void @_ZN18DFSRndNumGenerator11SearchState15initSearchStateEbii(ptr noundef nonnull align 4 dereferenceable(16) %0, i1 noundef zeroext %1, i32 noundef %2, i32 noundef %3) #4 align 2 {
  %5 = alloca ptr, align 8
  %6 = alloca i8, align 1
  %7 = alloca i32, align 4
  %8 = alloca i32, align 4
  store ptr %0, ptr %5, align 8
  %9 = zext i1 %1 to i8
  store i8 %9, ptr %6, align 1
  store i32 %2, ptr %7, align 4
  store i32 %3, ptr %8, align 4
  %10 = load ptr, ptr %5, align 8
  %11 = load i8, ptr %6, align 1
  %12 = trunc i8 %11 to i1
  %13 = getelementptr inbounds %"class.DFSRndNumGenerator::SearchState", ptr %10, i32 0, i32 0
  %14 = zext i1 %12 to i8
  store i8 %14, ptr %13, align 4
  %15 = load i32, ptr %7, align 4
  %16 = getelementptr inbounds %"class.DFSRndNumGenerator::SearchState", ptr %10, i32 0, i32 1
  store i32 %15, ptr %16, align 4
  %17 = load i32, ptr %8, align 4
  %18 = getelementptr inbounds %"class.DFSRndNumGenerator::SearchState", ptr %10, i32 0, i32 2
  store i32 %17, ptr %18, align 4
  ret void
}