; Function Attrs: mustprogress nofree norecurse nosync nounwind willreturn memory(argmem: write) uwtable
define dso_local void @_ZN18DFSRndNumGenerator11SearchState15initSearchStateEbii(ptr nocapture noundef nonnull writeonly align 4 dereferenceable(16) %0, i1 noundef zeroext %1, i32 noundef %2, i32 noundef %3) local_unnamed_addr #3 align 2 {
  %5 = zext i1 %1 to i8
  store i8 %5, ptr %0, align 4
  %6 = getelementptr inbounds i8, ptr %0, i64 4
  store i32 %2, ptr %6, align 4
  %7 = getelementptr inbounds i8, ptr %0, i64 8
  store i32 %3, ptr %7, align 4
  ret void
}